target datalayout = "e-m:e-p270:32:32-p271:32:32-p272:64:64-i64:64-i128:128-f80:128-n8:16:32:64-S128"
target triple = "x86_64-pc-linux-gnu"

@_ZL15utf8_errorValue = internal constant [6 x i32] [i32 21, i32 159, i32 65535, i32 1114111, i32 0, i32 0], align 16

; Function Attrs: mustprogress nounwind uwtable
define i32 @utf8_appendCharSafeBody_77(ptr noundef %0, i32 noundef %1, i32 noundef %2, i32 noundef %3, ptr noundef %4) #2 {
  %6 = alloca i32, align 4
  %7 = alloca ptr, align 8
  %8 = alloca i32, align 4
  %9 = alloca i32, align 4
  %10 = alloca i32, align 4
  %11 = alloca ptr, align 8
  %12 = alloca i32, align 4
  %13 = alloca i32, align 4
  store ptr %0, ptr %7, align 8, !tbaa !3
  store i32 %1, ptr %8, align 4, !tbaa !10
  store i32 %2, ptr %9, align 4, !tbaa !10
  store i32 %3, ptr %10, align 4, !tbaa !10
  store ptr %4, ptr %11, align 8, !tbaa !3
  %14 = load i32, ptr %10, align 4, !tbaa !10
  %15 = icmp ule i32 %14, 2047
  br i1 %15, label %16, label %42

16:                                               ; preds = %5
  %17 = load i32, ptr %8, align 4, !tbaa !10
  %18 = add nsw i32 %17, 1
  %19 = load i32, ptr %9, align 4, !tbaa !10
  %20 = icmp slt i32 %18, %19
  br i1 %20, label %21, label %41

21:                                               ; preds = %16
  %22 = load i32, ptr %10, align 4, !tbaa !10
  %23 = ashr i32 %22, 6
  %24 = or i32 %23, 192
  %25 = trunc i32 %24 to i8
  %26 = load ptr, ptr %7, align 8, !tbaa !3
  %27 = load i32, ptr %8, align 4, !tbaa !10
  %28 = add nsw i32 %27, 1
  store i32 %28, ptr %8, align 4, !tbaa !10
  %29 = sext i32 %27 to i64
  %30 = getelementptr inbounds i8, ptr %26, i64 %29
  store i8 %25, ptr %30, align 1, !tbaa !12
  %31 = load i32, ptr %10, align 4, !tbaa !10
  %32 = and i32 %31, 63
  %33 = or i32 %32, 128
  %34 = trunc i32 %33 to i8
  %35 = load ptr, ptr %7, align 8, !tbaa !3
  %36 = load i32, ptr %8, align 4, !tbaa !10
  %37 = add nsw i32 %36, 1
  store i32 %37, ptr %8, align 4, !tbaa !10
  %38 = sext i32 %36 to i64
  %39 = getelementptr inbounds i8, ptr %35, i64 %38
  store i8 %34, ptr %39, align 1, !tbaa !12
  %40 = load i32, ptr %8, align 4, !tbaa !10
  store i32 %40, ptr %6, align 4
  br label %249

41:                                               ; preds = %16
  br label %136

42:                                               ; preds = %5
  %43 = load i32, ptr %10, align 4, !tbaa !10
  %44 = icmp ule i32 %43, 65535
  br i1 %44, label %45, label %85

45:                                               ; preds = %42
  %46 = load i32, ptr %8, align 4, !tbaa !10
  %47 = add nsw i32 %46, 2
  %48 = load i32, ptr %9, align 4, !tbaa !10
  %49 = icmp slt i32 %47, %48
  br i1 %49, label %50, label %84

50:                                               ; preds = %45
  %51 = load i32, ptr %10, align 4, !tbaa !10
  %52 = and i32 %51, -2048
  %53 = icmp eq i32 %52, 55296
  br i1 %53, label %84, label %54

54:                                               ; preds = %50
  %55 = load i32, ptr %10, align 4, !tbaa !10
  %56 = ashr i32 %55, 12
  %57 = or i32 %56, 224
  %58 = trunc i32 %57 to i8
  %59 = load ptr, ptr %7, align 8, !tbaa !3
  %60 = load i32, ptr %8, align 4, !tbaa !10
  %61 = add nsw i32 %60, 1
  store i32 %61, ptr %8, align 4, !tbaa !10
  %62 = sext i32 %60 to i64
  %63 = getelementptr inbounds i8, ptr %59, i64 %62
  store i8 %58, ptr %63, align 1, !tbaa !12
  %64 = load i32, ptr %10, align 4, !tbaa !10
  %65 = ashr i32 %64, 6
  %66 = and i32 %65, 63
  %67 = or i32 %66, 128
  %68 = trunc i32 %67 to i8
  %69 = load ptr, ptr %7, align 8, !tbaa !3
  %70 = load i32, ptr %8, align 4, !tbaa !10
  %71 = add nsw i32 %70, 1
  store i32 %71, ptr %8, align 4, !tbaa !10
  %72 = sext i32 %70 to i64
  %73 = getelementptr inbounds i8, ptr %69, i64 %72
  store i8 %68, ptr %73, align 1, !tbaa !12
  %74 = load i32, ptr %10, align 4, !tbaa !10
  %75 = and i32 %74, 63
  %76 = or i32 %75, 128
  %77 = trunc i32 %76 to i8
  %78 = load ptr, ptr %7, align 8, !tbaa !3
  %79 = load i32, ptr %8, align 4, !tbaa !10
  %80 = add nsw i32 %79, 1
  store i32 %80, ptr %8, align 4, !tbaa !10
  %81 = sext i32 %79 to i64
  %82 = getelementptr inbounds i8, ptr %78, i64 %81
  store i8 %77, ptr %82, align 1, !tbaa !12
  %83 = load i32, ptr %8, align 4, !tbaa !10
  store i32 %83, ptr %6, align 4
  br label %249

84:                                               ; preds = %50, %45
  br label %135

85:                                               ; preds = %42
  %86 = load i32, ptr %10, align 4, !tbaa !10
  %87 = icmp ule i32 %86, 1114111
  br i1 %87, label %88, label %134

88:                                               ; preds = %85
  %89 = load i32, ptr %8, align 4, !tbaa !10
  %90 = add nsw i32 %89, 3
  %91 = load i32, ptr %9, align 4, !tbaa !10
  %92 = icmp slt i32 %90, %91
  br i1 %92, label %93, label %133

93:                                               ; preds = %88
  %94 = load i32, ptr %10, align 4, !tbaa !10
  %95 = ashr i32 %94, 18
  %96 = or i32 %95, 240
  %97 = trunc i32 %96 to i8
  %98 = load ptr, ptr %7, align 8, !tbaa !3
  %99 = load i32, ptr %8, align 4, !tbaa !10
  %100 = add nsw i32 %99, 1
  store i32 %100, ptr %8, align 4, !tbaa !10
  %101 = sext i32 %99 to i64
  %102 = getelementptr inbounds i8, ptr %98, i64 %101
  store i8 %97, ptr %102, align 1, !tbaa !12
  %103 = load i32, ptr %10, align 4, !tbaa !10
  %104 = ashr i32 %103, 12
  %105 = and i32 %104, 63
  %106 = or i32 %105, 128
  %107 = trunc i32 %106 to i8
  %108 = load ptr, ptr %7, align 8, !tbaa !3
  %109 = load i32, ptr %8, align 4, !tbaa !10
  %110 = add nsw i32 %109, 1
  store i32 %110, ptr %8, align 4, !tbaa !10
  %111 = sext i32 %109 to i64
  %112 = getelementptr inbounds i8, ptr %108, i64 %111
  store i8 %107, ptr %112, align 1, !tbaa !12
  %113 = load i32, ptr %10, align 4, !tbaa !10
  %114 = ashr i32 %113, 6
  %115 = and i32 %114, 63
  %116 = or i32 %115, 128
  %117 = trunc i32 %116 to i8
  %118 = load ptr, ptr %7, align 8, !tbaa !3
  %119 = load i32, ptr %8, align 4, !tbaa !10
  %120 = add nsw i32 %119, 1
  store i32 %120, ptr %8, align 4, !tbaa !10
  %121 = sext i32 %119 to i64
  %122 = getelementptr inbounds i8, ptr %118, i64 %121
  store i8 %117, ptr %122, align 1, !tbaa !12
  %123 = load i32, ptr %10, align 4, !tbaa !10
  %124 = and i32 %123, 63
  %125 = or i32 %124, 128
  %126 = trunc i32 %125 to i8
  %127 = load ptr, ptr %7, align 8, !tbaa !3
  %128 = load i32, ptr %8, align 4, !tbaa !10
  %129 = add nsw i32 %128, 1
  store i32 %129, ptr %8, align 4, !tbaa !10
  %130 = sext i32 %128 to i64
  %131 = getelementptr inbounds i8, ptr %127, i64 %130
  store i8 %126, ptr %131, align 1, !tbaa !12
  %132 = load i32, ptr %8, align 4, !tbaa !10
  store i32 %132, ptr %6, align 4
  br label %249

133:                                              ; preds = %88
  br label %134

134:                                              ; preds = %133, %85
  br label %135

135:                                              ; preds = %134, %84
  br label %136

136:                                              ; preds = %135, %41
  %137 = load ptr, ptr %11, align 8, !tbaa !3
  %138 = icmp ne ptr %137, null
  br i1 %138, label %139, label %141

139:                                              ; preds = %136
  %140 = load ptr, ptr %11, align 8, !tbaa !3
  store i8 1, ptr %140, align 1, !tbaa !12
  br label %247

141:                                              ; preds = %136
  %142 = load i32, ptr %8, align 4, !tbaa !10
  %143 = load i32, ptr %9, align 4, !tbaa !10
  %144 = sub nsw i32 %143, %142
  store i32 %144, ptr %9, align 4, !tbaa !10
  %145 = load i32, ptr %9, align 4, !tbaa !10
  %146 = icmp sgt i32 %145, 0
  br i1 %146, label %147, label %246

147:                                              ; preds = %141
  call void @llvm.lifetime.start.p0(i64 4, ptr %12) #3
  %148 = load i32, ptr %9, align 4, !tbaa !10
  %149 = icmp sgt i32 %148, 3
  br i1 %149, label %150, label %151

150:                                              ; preds = %147
  store i32 3, ptr %9, align 4, !tbaa !10
  br label %151

151:                                              ; preds = %150, %147
  %152 = load i32, ptr %8, align 4, !tbaa !10
  %153 = load ptr, ptr %7, align 8, !tbaa !3
  %154 = sext i32 %152 to i64
  %155 = getelementptr inbounds i8, ptr %153, i64 %154
  store ptr %155, ptr %7, align 8, !tbaa !3
  store i32 0, ptr %12, align 4, !tbaa !10
  %156 = load i32, ptr %9, align 4, !tbaa !10
  %157 = sub nsw i32 %156, 1
  %158 = sext i32 %157 to i64
  %159 = getelementptr inbounds [6 x i32], ptr @_ZL15utf8_errorValue, i64 0, i64 %158
  %160 = load i32, ptr %159, align 4, !tbaa !10
  store i32 %160, ptr %10, align 4, !tbaa !10
  br label %161

161:                                              ; preds = %151
  call void @llvm.lifetime.start.p0(i64 4, ptr %13) #3
  %162 = load i32, ptr %10, align 4, !tbaa !10
  store i32 %162, ptr %13, align 4, !tbaa !10
  %163 = load i32, ptr %13, align 4, !tbaa !10
  %164 = icmp ule i32 %163, 127
  br i1 %164, label %165, label %173

165:                                              ; preds = %161
  %166 = load i32, ptr %13, align 4, !tbaa !10
  %167 = trunc i32 %166 to i8
  %168 = load ptr, ptr %7, align 8, !tbaa !3
  %169 = load i32, ptr %12, align 4, !tbaa !10
  %170 = add nsw i32 %169, 1
  store i32 %170, ptr %12, align 4, !tbaa !10
  %171 = sext i32 %169 to i64
  %172 = getelementptr inbounds i8, ptr %168, i64 %171
  store i8 %167, ptr %172, align 1, !tbaa !12
  br label %240

173:                                              ; preds = %161
  %174 = load i32, ptr %13, align 4, !tbaa !10
  %175 = icmp ule i32 %174, 2047
  br i1 %175, label %176, label %186

176:                                              ; preds = %173
  %177 = load i32, ptr %13, align 4, !tbaa !10
  %178 = lshr i32 %177, 6
  %179 = or i32 %178, 192
  %180 = trunc i32 %179 to i8
  %181 = load ptr, ptr %7, align 8, !tbaa !3
  %182 = load i32, ptr %12, align 4, !tbaa !10
  %183 = add nsw i32 %182, 1
  store i32 %183, ptr %12, align 4, !tbaa !10
  %184 = sext i32 %182 to i64
  %185 = getelementptr inbounds i8, ptr %181, i64 %184
  store i8 %180, ptr %185, align 1, !tbaa !12
  br label %230

186:                                              ; preds = %173
  %187 = load i32, ptr %13, align 4, !tbaa !10
  %188 = icmp ule i32 %187, 65535
  br i1 %188, label %189, label %199

189:                                              ; preds = %186
  %190 = load i32, ptr %13, align 4, !tbaa !10
  %191 = lshr i32 %190, 12
  %192 = or i32 %191, 224
  %193 = trunc i32 %192 to i8
  %194 = load ptr, ptr %7, align 8, !tbaa !3
  %195 = load i32, ptr %12, align 4, !tbaa !10
  %196 = add nsw i32 %195, 1
  store i32 %196, ptr %12, align 4, !tbaa !10
  %197 = sext i32 %195 to i64
  %198 = getelementptr inbounds i8, ptr %194, i64 %197
  store i8 %193, ptr %198, align 1, !tbaa !12
  br label %219

199:                                              ; preds = %186
  %200 = load i32, ptr %13, align 4, !tbaa !10
  %201 = lshr i32 %200, 18
  %202 = or i32 %201, 240
  %203 = trunc i32 %202 to i8
  %204 = load ptr, ptr %7, align 8, !tbaa !3
  %205 = load i32, ptr %12, align 4, !tbaa !10
  %206 = add nsw i32 %205, 1
  store i32 %206, ptr %12, align 4, !tbaa !10
  %207 = sext i32 %205 to i64
  %208 = getelementptr inbounds i8, ptr %204, i64 %207
  store i8 %203, ptr %208, align 1, !tbaa !12
  %209 = load i32, ptr %13, align 4, !tbaa !10
  %210 = lshr i32 %209, 12
  %211 = and i32 %210, 63
  %212 = or i32 %211, 128
  %213 = trunc i32 %212 to i8
  %214 = load ptr, ptr %7, align 8, !tbaa !3
  %215 = load i32, ptr %12, align 4, !tbaa !10
  %216 = add nsw i32 %215, 1
  store i32 %216, ptr %12, align 4, !tbaa !10
  %217 = sext i32 %215 to i64
  %218 = getelementptr inbounds i8, ptr %214, i64 %217
  store i8 %213, ptr %218, align 1, !tbaa !12
  br label %219

219:                                              ; preds = %199, %189
  %220 = load i32, ptr %13, align 4, !tbaa !10
  %221 = lshr i32 %220, 6
  %222 = and i32 %221, 63
  %223 = or i32 %222, 128
  %224 = trunc i32 %223 to i8
  %225 = load ptr, ptr %7, align 8, !tbaa !3
  %226 = load i32, ptr %12, align 4, !tbaa !10
  %227 = add nsw i32 %226, 1
  store i32 %227, ptr %12, align 4, !tbaa !10
  %228 = sext i32 %226 to i64
  %229 = getelementptr inbounds i8, ptr %225, i64 %228
  store i8 %224, ptr %229, align 1, !tbaa !12
  br label %230

230:                                              ; preds = %219, %176
  %231 = load i32, ptr %13, align 4, !tbaa !10
  %232 = and i32 %231, 63
  %233 = or i32 %232, 128
  %234 = trunc i32 %233 to i8
  %235 = load ptr, ptr %7, align 8, !tbaa !3
  %236 = load i32, ptr %12, align 4, !tbaa !10
  %237 = add nsw i32 %236, 1
  store i32 %237, ptr %12, align 4, !tbaa !10
  %238 = sext i32 %236 to i64
  %239 = getelementptr inbounds i8, ptr %235, i64 %238
  store i8 %234, ptr %239, align 1, !tbaa !12
  br label %240

240:                                              ; preds = %230, %165
  call void @llvm.lifetime.end.p0(i64 4, ptr %13) #3
  br label %241

241:                                              ; preds = %240
  br label %242

242:                                              ; preds = %241
  %243 = load i32, ptr %8, align 4, !tbaa !10
  %244 = load i32, ptr %12, align 4, !tbaa !10
  %245 = add nsw i32 %243, %244
  store i32 %245, ptr %8, align 4, !tbaa !10
  call void @llvm.lifetime.end.p0(i64 4, ptr %12) #3
  br label %246

246:                                              ; preds = %242, %141
  br label %247

247:                                              ; preds = %246, %139
  %248 = load i32, ptr %8, align 4, !tbaa !10
  store i32 %248, ptr %6, align 4
  br label %249

249:                                              ; preds = %247, %93, %54, %21
  %250 = load i32, ptr %6, align 4
  ret i32 %250
}