; Function Attrs: mustprogress nofree norecurse nosync nounwind willreturn memory(argmem: write) uwtable
define i32 @utf8_appendCharSafeBody_77(ptr noundef writeonly captures(none) %0, i32 noundef %1, i32 noundef %2, i32 noundef %3, ptr noundef writeonly %4) local_unnamed_addr #1 {
  %6 = icmp ult i32 %3, 2048
  br i1 %6, label %7, label %22

7:                                                ; preds = %5
  %8 = add nsw i32 %1, 1
  %9 = icmp slt i32 %8, %2
  br i1 %9, label %10, label %70

10:                                               ; preds = %7
  %11 = lshr i32 %3, 6
  %12 = trunc nuw i32 %11 to i8
  %13 = or disjoint i8 %12, -64
  %14 = sext i32 %1 to i64
  %15 = getelementptr inbounds i8, ptr %0, i64 %14
  store i8 %13, ptr %15, align 1, !tbaa !7
  %16 = trunc i32 %3 to i8
  %17 = and i8 %16, 63
  %18 = or disjoint i8 %17, -128
  %19 = add nsw i32 %1, 2
  %20 = sext i32 %8 to i64
  %21 = getelementptr inbounds i8, ptr %0, i64 %20
  store i8 %18, ptr %21, align 1, !tbaa !7
  br label %110

22:                                               ; preds = %5
  %23 = icmp ult i32 %3, 65536
  br i1 %23, label %24, label %45

24:                                               ; preds = %22
  %25 = add nsw i32 %1, 2
  %26 = icmp sge i32 %25, %2
  %27 = and i32 %3, 63488
  %28 = icmp eq i32 %27, 55296
  %or.cond = or i1 %26, %28
  br i1 %or.cond, label %70, label %29

29:                                               ; preds = %24
  %30 = lshr i32 %3, 12
  %31 = trunc nuw i32 %30 to i8
  %32 = or disjoint i8 %31, -32
  %33 = sext i32 %1 to i64
  %34 = getelementptr inbounds i8, ptr %0, i64 %33
  store i8 %32, ptr %34, align 1, !tbaa !7
  %35 = lshr i32 %3, 6
  %36 = trunc i32 %35 to i8
  %37 = and i8 %36, 63
  %38 = or disjoint i8 %37, -128
  %39 = getelementptr i8, ptr %34, i64 1
  store i8 %38, ptr %39, align 1, !tbaa !7
  %40 = trunc i32 %3 to i8
  %41 = and i8 %40, 63
  %42 = or disjoint i8 %41, -128
  %43 = add nsw i32 %1, 3
  %44 = getelementptr i8, ptr %34, i64 2
  store i8 %42, ptr %44, align 1, !tbaa !7
  br label %110

45:                                               ; preds = %22
  %46 = icmp ult i32 %3, 1114112
  %47 = add nsw i32 %1, 3
  %48 = icmp slt i32 %47, %2
  %or.cond89 = select i1 %46, i1 %48, i1 false
  br i1 %or.cond89, label %49, label %70

49:                                               ; preds = %45
  %50 = lshr i32 %3, 18
  %51 = trunc nuw i32 %50 to i8
  %52 = or disjoint i8 %51, -16
  %53 = sext i32 %1 to i64
  %54 = getelementptr inbounds i8, ptr %0, i64 %53
  store i8 %52, ptr %54, align 1, !tbaa !7
  %55 = lshr i32 %3, 12
  %56 = trunc i32 %55 to i8
  %57 = and i8 %56, 63
  %58 = or disjoint i8 %57, -128
  %59 = getelementptr i8, ptr %54, i64 1
  store i8 %58, ptr %59, align 1, !tbaa !7
  %60 = lshr i32 %3, 6
  %61 = trunc i32 %60 to i8
  %62 = and i8 %61, 63
  %63 = or disjoint i8 %62, -128
  %64 = getelementptr i8, ptr %54, i64 2
  store i8 %63, ptr %64, align 1, !tbaa !7
  %65 = trunc i32 %3 to i8
  %66 = and i8 %65, 63
  %67 = or disjoint i8 %66, -128
  %68 = add nsw i32 %1, 4
  %69 = getelementptr i8, ptr %54, i64 3
  store i8 %67, ptr %69, align 1, !tbaa !7
  br label %110

70:                                               ; preds = %24, %45, %7
  %.not = icmp eq ptr %4, null
  br i1 %.not, label %72, label %71

71:                                               ; preds = %70
  store i8 1, ptr %4, align 1, !tbaa !7
  br label %110

72:                                               ; preds = %70
  %73 = sub nsw i32 %2, %1
  %74 = icmp sgt i32 %73, 0
  br i1 %74, label %75, label %110

75:                                               ; preds = %72
  %76 = tail call i32 @llvm.umin.i32(i32 %73, i32 3)
  %77 = sext i32 %1 to i64
  %78 = getelementptr inbounds i8, ptr %0, i64 %77
  %79 = add nsw i32 %76, -1
  %80 = zext nneg i32 %79 to i64
  %81 = getelementptr inbounds nuw [6 x i32], ptr @_ZL15utf8_errorValue, i64 0, i64 %80
  %82 = load i32, ptr %81, align 4, !tbaa !3
  %83 = icmp eq i32 %79, 0
  br i1 %83, label %84, label %86

84:                                               ; preds = %75
  %85 = trunc nuw nsw i32 %82 to i8
  store i8 %85, ptr %78, align 1, !tbaa !7
  br label %108

86:                                               ; preds = %75
  %87 = icmp samesign ult i32 %73, 3
  br i1 %87, label %88, label %92

88:                                               ; preds = %86
  %89 = lshr i32 %82, 6
  %90 = trunc i32 %89 to i8
  %91 = or i8 %90, -64
  br label %101

92:                                               ; preds = %86
  %93 = lshr i32 %82, 12
  %94 = trunc i32 %93 to i8
  %95 = or i8 %94, -32
  %96 = lshr i32 %82, 6
  %97 = trunc i32 %96 to i8
  %98 = and i8 %97, 63
  %99 = or disjoint i8 %98, -128
  %100 = getelementptr inbounds nuw i8, ptr %78, i64 1
  store i8 %99, ptr %100, align 1, !tbaa !7
  br label %101

101:                                              ; preds = %92, %88
  %.sink = phi i8 [ %91, %88 ], [ %95, %92 ]
  %.1 = phi i32 [ 1, %88 ], [ 2, %92 ]
  store i8 %.sink, ptr %78, align 1, !tbaa !7
  %102 = trunc i32 %82 to i8
  %103 = and i8 %102, 63
  %104 = or disjoint i8 %103, -128
  %105 = add nuw nsw i32 %.1, 1
  %106 = zext nneg i32 %.1 to i64
  %107 = getelementptr inbounds nuw i8, ptr %78, i64 %106
  store i8 %104, ptr %107, align 1, !tbaa !7
  br label %108

108:                                              ; preds = %101, %84
  %.077 = phi i32 [ 1, %84 ], [ %105, %101 ]
  %109 = add nsw i32 %.077, %1
  br label %110

110:                                              ; preds = %71, %108, %72, %49, %29, %10
  %.0 = phi i32 [ %19, %10 ], [ %43, %29 ], [ %68, %49 ], [ %1, %71 ], [ %109, %108 ], [ %1, %72 ]
  ret i32 %.0
}